target datalayout = "e-m:e-p270:32:32-p271:32:32-p272:64:64-i64:64-i128:128-f80:128-n8:16:32:64-S128"
target triple = "x86_64-pc-linux-gnu"

; Function Attrs: mustprogress nounwind uwtable
define noundef i32 @_ZN10open_spiel9solitaire10GetMaxSizeENS0_12LocationTypeE(i32 noundef %0) #5 {
  %2 = alloca i32, align 4
  %3 = alloca i32, align 4
  store i32 %0, ptr %3, align 4
  %4 = load i32, ptr %3, align 4
  %5 = icmp sge i32 %4, 0
  br i1 %5, label %6, label %10

6:                                                ; preds = %1
  %7 = load i32, ptr %3, align 4
  %8 = icmp sle i32 %7, 1
  br i1 %8, label %9, label %10

9:                                                ; preds = %6
  store i32 24, ptr %2, align 4
  br label %19

10:                                               ; preds = %6, %1
  %11 = load i32, ptr %3, align 4
  %12 = icmp eq i32 %11, 2
  br i1 %12, label %13, label %14

13:                                               ; preds = %10
  store i32 13, ptr %2, align 4
  br label %19

14:                                               ; preds = %10
  %15 = load i32, ptr %3, align 4
  %16 = icmp eq i32 %15, 3
  br i1 %16, label %17, label %18

17:                                               ; preds = %14
  store i32 19, ptr %2, align 4
  br label %19

18:                                               ; preds = %14
  store i32 0, ptr %2, align 4
  br label %19

19:                                               ; preds = %18, %17, %13, %9
  %20 = load i32, ptr %2, align 4
  ret i32 %20
}