; Function Attrs: mustprogress nofree norecurse nosync nounwind willreturn memory(none) uwtable
define noundef range(i32 0, 25) i32 @_ZN10open_spiel9solitaire10GetMaxSizeENS0_12LocationTypeE(i32 noundef %0) local_unnamed_addr #7 {
  %or.cond = icmp ult i32 %0, 2
  %switch.selectcmp = icmp eq i32 %0, 3
  %switch.select = select i1 %switch.selectcmp, i32 19, i32 0
  %switch.selectcmp7 = icmp eq i32 %0, 2
  %switch.select8 = select i1 %switch.selectcmp7, i32 13, i32 %switch.select
  %.0 = select i1 %or.cond, i32 24, i32 %switch.select8
  ret i32 %.0
}